target datalayout = "e-m:e-p270:32:32-p271:32:32-p272:64:64-i64:64-i128:128-f80:128-n8:16:32:64-S128"
target triple = "x86_64-pc-linux-gnu"

%class.QString = type { ptr }
%class.RichParameter = type { ptr, %class.QString, ptr, %class.QString, %class.QString, i8, i8, %class.QString }

; Function Attrs: mustprogress nounwind uwtable
define noundef nonnull align 8 dereferenceable(8) ptr @_ZNK13RichParameter5valueEv(ptr noundef nonnull align 8 dereferenceable(56) %0) #0 align 2 {
  %2 = alloca ptr, align 8
  store ptr %0, ptr %2, align 8
  %3 = load ptr, ptr %2, align 8
  %4 = getelementptr inbounds %class.RichParameter, ptr %3, i32 0, i32 2
  %5 = load ptr, ptr %4, align 8
  ret ptr %5
}

; Function Attrs: mustprogress uwtable
define noundef nonnull align 8 dereferenceable(56) ptr @_ZN13RichParameteraSERKS_(ptr noundef nonnull align 8 dereferenceable(56) %0, ptr noundef nonnull align 8 dereferenceable(56) %1) #1 align 2 {
  %3 = alloca ptr, align 8
  %4 = alloca ptr, align 8
  store ptr %0, ptr %3, align 8
  store ptr %1, ptr %4, align 8
  %5 = load ptr, ptr %3, align 8
  %6 = load ptr, ptr %4, align 8
  %7 = icmp ne ptr %6, %5
  br i1 %7, label %8, label %52

8:                                                ; preds = %2
  %9 = getelementptr inbounds %class.RichParameter, ptr %5, i32 0, i32 2
  %10 = load ptr, ptr %9, align 8
  %11 = icmp eq ptr %10, null
  br i1 %11, label %16, label %12

12:                                               ; preds = %8
  %13 = load ptr, ptr %10, align 8
  %14 = getelementptr inbounds ptr, ptr %13, i64 1
  %15 = load ptr, ptr %14, align 8
  call void %15(ptr noundef nonnull align 8 dereferenceable(8) %10) #5
  br label %16

16:                                               ; preds = %12, %8
  %17 = load ptr, ptr %4, align 8
  %18 = call noundef nonnull align 8 dereferenceable(8) ptr @_ZNK13RichParameter5valueEv(ptr noundef nonnull align 8 dereferenceable(56) %17)
  %19 = load ptr, ptr %18, align 8
  %20 = getelementptr inbounds ptr, ptr %19, i64 20
  %21 = load ptr, ptr %20, align 8
  %22 = call noundef ptr %21(ptr noundef nonnull align 8 dereferenceable(8) %18)
  %23 = getelementptr inbounds %class.RichParameter, ptr %5, i32 0, i32 2
  store ptr %22, ptr %23, align 8
  %24 = load ptr, ptr %4, align 8
  %25 = getelementptr inbounds %class.RichParameter, ptr %24, i32 0, i32 1
  %26 = getelementptr inbounds %class.RichParameter, ptr %5, i32 0, i32 1
  %27 = call noundef nonnull align 8 dereferenceable(8) ptr @_ZN7QStringaSERKS_(ptr noundef nonnull align 8 dereferenceable(8) %26, ptr noundef nonnull align 8 dereferenceable(8) %25) #5
  %28 = load ptr, ptr %4, align 8
  %29 = getelementptr inbounds %class.RichParameter, ptr %28, i32 0, i32 3
  %30 = getelementptr inbounds %class.RichParameter, ptr %5, i32 0, i32 3
  %31 = call noundef nonnull align 8 dereferenceable(8) ptr @_ZN7QStringaSERKS_(ptr noundef nonnull align 8 dereferenceable(8) %30, ptr noundef nonnull align 8 dereferenceable(8) %29) #5
  %32 = load ptr, ptr %4, align 8
  %33 = getelementptr inbounds %class.RichParameter, ptr %32, i32 0, i32 4
  %34 = getelementptr inbounds %class.RichParameter, ptr %5, i32 0, i32 4
  %35 = call noundef nonnull align 8 dereferenceable(8) ptr @_ZN7QStringaSERKS_(ptr noundef nonnull align 8 dereferenceable(8) %34, ptr noundef nonnull align 8 dereferenceable(8) %33) #5
  %36 = load ptr, ptr %4, align 8
  %37 = getelementptr inbounds %class.RichParameter, ptr %36, i32 0, i32 5
  %38 = load i8, ptr %37, align 8
  %39 = trunc i8 %38 to i1
  %40 = getelementptr inbounds %class.RichParameter, ptr %5, i32 0, i32 5
  %41 = zext i1 %39 to i8
  store i8 %41, ptr %40, align 8
  %42 = load ptr, ptr %4, align 8
  %43 = getelementptr inbounds %class.RichParameter, ptr %42, i32 0, i32 6
  %44 = load i8, ptr %43, align 1
  %45 = trunc i8 %44 to i1
  %46 = getelementptr inbounds %class.RichParameter, ptr %5, i32 0, i32 6
  %47 = zext i1 %45 to i8
  store i8 %47, ptr %46, align 1
  %48 = load ptr, ptr %4, align 8
  %49 = getelementptr inbounds %class.RichParameter, ptr %48, i32 0, i32 7
  %50 = getelementptr inbounds %class.RichParameter, ptr %5, i32 0, i32 7
  %51 = call noundef nonnull align 8 dereferenceable(8) ptr @_ZN7QStringaSERKS_(ptr noundef nonnull align 8 dereferenceable(8) %50, ptr noundef nonnull align 8 dereferenceable(8) %49) #5
  br label %52

52:                                               ; preds = %16, %2
  ret ptr %5
}