; Function Attrs: mustprogress uwtable
define noundef nonnull align 8 dereferenceable(56) ptr @_ZN13RichParameteraSERKS_(ptr noundef nonnull returned align 8 dereferenceable(56) %0, ptr noundef nonnull align 8 dereferenceable(56) %1) local_unnamed_addr #1 align 2 {
  %.not = icmp eq ptr %1, %0
  br i1 %.not, label %38, label %3

3:                                                ; preds = %2
  %4 = getelementptr inbounds i8, ptr %0, i64 16
  %5 = load ptr, ptr %4, align 8
  %6 = icmp eq ptr %5, null
  br i1 %6, label %11, label %7

7:                                                ; preds = %3
  %8 = load ptr, ptr %5, align 8
  %9 = getelementptr inbounds i8, ptr %8, i64 8
  %10 = load ptr, ptr %9, align 8
  tail call void %10(ptr noundef nonnull align 8 dereferenceable(8) %5) #21
  br label %11

11:                                               ; preds = %7, %3
  %12 = getelementptr inbounds i8, ptr %1, i64 16
  %13 = load ptr, ptr %12, align 8
  %14 = load ptr, ptr %13, align 8
  %15 = getelementptr inbounds i8, ptr %14, i64 160
  %16 = load ptr, ptr %15, align 8
  %17 = tail call noundef ptr %16(ptr noundef nonnull align 8 dereferenceable(8) %13)
  store ptr %17, ptr %4, align 8
  %18 = getelementptr inbounds i8, ptr %1, i64 8
  %19 = getelementptr inbounds i8, ptr %0, i64 8
  %20 = tail call noundef nonnull align 8 dereferenceable(8) ptr @_ZN7QStringaSERKS_(ptr noundef nonnull align 8 dereferenceable(8) %19, ptr noundef nonnull align 8 dereferenceable(8) %18) #21
  %21 = getelementptr inbounds i8, ptr %1, i64 24
  %22 = getelementptr inbounds i8, ptr %0, i64 24
  %23 = tail call noundef nonnull align 8 dereferenceable(8) ptr @_ZN7QStringaSERKS_(ptr noundef nonnull align 8 dereferenceable(8) %22, ptr noundef nonnull align 8 dereferenceable(8) %21) #21
  %24 = getelementptr inbounds i8, ptr %1, i64 32
  %25 = getelementptr inbounds i8, ptr %0, i64 32
  %26 = tail call noundef nonnull align 8 dereferenceable(8) ptr @_ZN7QStringaSERKS_(ptr noundef nonnull align 8 dereferenceable(8) %25, ptr noundef nonnull align 8 dereferenceable(8) %24) #21
  %27 = getelementptr inbounds i8, ptr %1, i64 40
  %28 = load i8, ptr %27, align 8
  %29 = and i8 %28, 1
  %30 = getelementptr inbounds i8, ptr %0, i64 40
  store i8 %29, ptr %30, align 8
  %31 = getelementptr inbounds i8, ptr %1, i64 41
  %32 = load i8, ptr %31, align 1
  %33 = and i8 %32, 1
  %34 = getelementptr inbounds i8, ptr %0, i64 41
  store i8 %33, ptr %34, align 1
  %35 = getelementptr inbounds i8, ptr %1, i64 48
  %36 = getelementptr inbounds i8, ptr %0, i64 48
  %37 = tail call noundef nonnull align 8 dereferenceable(8) ptr @_ZN7QStringaSERKS_(ptr noundef nonnull align 8 dereferenceable(8) %36, ptr noundef nonnull align 8 dereferenceable(8) %35) #21
  br label %38

38:                                               ; preds = %11, %2
  ret ptr %0
}